target datalayout = "e-m:e-p270:32:32-p271:32:32-p272:64:64-i64:64-i128:128-f80:128-n8:16:32:64-S128"
target triple = "x86_64-pc-linux-gnu"

%struct.vars = type { ptr, ptr, i32, i64, ptr, ptr, ptr, ptr, ptr, i32, ptr, ptr, ptr, ptr, %struct.smalldfa, %struct.smalldfa }
%struct.smalldfa = type { %struct.dfa, [40 x %struct.sset], [41 x i32], [600 x ptr], [600 x %struct.arcp] }
%struct.dfa = type { i32, i32, i32, i32, i32, ptr, ptr, ptr, ptr, ptr, ptr, ptr, ptr, ptr, ptr, i32, i16, i16, i8, i8 }
%struct.sset = type { ptr, i32, i32, %struct.arcp, ptr, ptr, ptr }
%struct.arcp = type { ptr, i16 }
%struct.cnfa = type { i32, i32, i32, i32, i32, [2 x i16], [2 x i16], ptr, ptr, ptr, i32, i32 }

; Function Attrs: nounwind uwtable
define internal void @freedfa(ptr noundef %0) #0 {
  %2 = alloca ptr, align 8
  store ptr %0, ptr %2, align 8
  %3 = load ptr, ptr %2, align 8
  %4 = getelementptr inbounds nuw %struct.dfa, ptr %3, i32 0, i32 19
  %5 = load i8, ptr %4, align 1, !range !12, !noundef !13
  %6 = trunc i8 %5 to i1
  br i1 %6, label %7, label %44

7:                                                ; preds = %1
  %8 = load ptr, ptr %2, align 8
  %9 = getelementptr inbounds nuw %struct.dfa, ptr %8, i32 0, i32 5
  %10 = load ptr, ptr %9, align 8
  %11 = icmp ne ptr %10, null
  br i1 %11, label %12, label %16

12:                                               ; preds = %7
  %13 = load ptr, ptr %2, align 8
  %14 = getelementptr inbounds nuw %struct.dfa, ptr %13, i32 0, i32 5
  %15 = load ptr, ptr %14, align 8
  call void @pfree(ptr noundef %15)
  br label %16

16:                                               ; preds = %12, %7
  %17 = load ptr, ptr %2, align 8
  %18 = getelementptr inbounds nuw %struct.dfa, ptr %17, i32 0, i32 6
  %19 = load ptr, ptr %18, align 8
  %20 = icmp ne ptr %19, null
  br i1 %20, label %21, label %25

21:                                               ; preds = %16
  %22 = load ptr, ptr %2, align 8
  %23 = getelementptr inbounds nuw %struct.dfa, ptr %22, i32 0, i32 6
  %24 = load ptr, ptr %23, align 8
  call void @pfree(ptr noundef %24)
  br label %25

25:                                               ; preds = %21, %16
  %26 = load ptr, ptr %2, align 8
  %27 = getelementptr inbounds nuw %struct.dfa, ptr %26, i32 0, i32 8
  %28 = load ptr, ptr %27, align 8
  %29 = icmp ne ptr %28, null
  br i1 %29, label %30, label %34

30:                                               ; preds = %25
  %31 = load ptr, ptr %2, align 8
  %32 = getelementptr inbounds nuw %struct.dfa, ptr %31, i32 0, i32 8
  %33 = load ptr, ptr %32, align 8
  call void @pfree(ptr noundef %33)
  br label %34

34:                                               ; preds = %30, %25
  %35 = load ptr, ptr %2, align 8
  %36 = getelementptr inbounds nuw %struct.dfa, ptr %35, i32 0, i32 9
  %37 = load ptr, ptr %36, align 8
  %38 = icmp ne ptr %37, null
  br i1 %38, label %39, label %43

39:                                               ; preds = %34
  %40 = load ptr, ptr %2, align 8
  %41 = getelementptr inbounds nuw %struct.dfa, ptr %40, i32 0, i32 9
  %42 = load ptr, ptr %41, align 8
  call void @pfree(ptr noundef %42)
  br label %43

43:                                               ; preds = %39, %34
  br label %44

44:                                               ; preds = %43, %1
  %45 = load ptr, ptr %2, align 8
  %46 = getelementptr inbounds nuw %struct.dfa, ptr %45, i32 0, i32 18
  %47 = load i8, ptr %46, align 8, !range !12, !noundef !13
  %48 = trunc i8 %47 to i1
  br i1 %48, label %49, label %51

49:                                               ; preds = %44
  %50 = load ptr, ptr %2, align 8
  call void @pfree(ptr noundef %50)
  br label %51

51:                                               ; preds = %49, %44
  ret void
}

; Function Attrs: nounwind uwtable
define internal ptr @newdfa(ptr noundef %0, ptr noundef %1, ptr noundef %2, ptr noundef %3) #0 {
  %5 = alloca ptr, align 8
  %6 = alloca ptr, align 8
  %7 = alloca ptr, align 8
  %8 = alloca ptr, align 8
  %9 = alloca ptr, align 8
  %10 = alloca ptr, align 8
  %11 = alloca i64, align 8
  %12 = alloca i32, align 4
  %13 = alloca i8, align 1
  %14 = alloca i32, align 4
  store ptr %0, ptr %6, align 8
  store ptr %1, ptr %7, align 8
  store ptr %2, ptr %8, align 8
  store ptr %3, ptr %9, align 8
  call void @llvm.lifetime.start.p0(i64 8, ptr %10) #7
  call void @llvm.lifetime.start.p0(i64 8, ptr %11) #7
  %15 = load ptr, ptr %7, align 8
  %16 = getelementptr inbounds nuw %struct.cnfa, ptr %15, i32 0, i32 0
  %17 = load i32, ptr %16, align 8
  %18 = mul i32 %17, 2
  %19 = sext i32 %18 to i64
  store i64 %19, ptr %11, align 8
  call void @llvm.lifetime.start.p0(i64 4, ptr %12) #7
  %20 = load ptr, ptr %7, align 8
  %21 = getelementptr inbounds nuw %struct.cnfa, ptr %20, i32 0, i32 0
  %22 = load i32, ptr %21, align 8
  %23 = sext i32 %22 to i64
  %24 = add i64 %23, 32
  %25 = sub i64 %24, 1
  %26 = udiv i64 %25, 32
  %27 = trunc i64 %26 to i32
  store i32 %27, ptr %12, align 4
  call void @llvm.lifetime.start.p0(i64 1, ptr %13) #7
  store i8 0, ptr %13, align 1
  %28 = load i64, ptr %11, align 8
  %29 = icmp ule i64 %28, 20
  br i1 %29, label %30, label %94

30:                                               ; preds = %4
  %31 = load ptr, ptr %7, align 8
  %32 = getelementptr inbounds nuw %struct.cnfa, ptr %31, i32 0, i32 1
  %33 = load i32, ptr %32, align 4
  %34 = icmp sle i32 %33, 15
  br i1 %34, label %35, label %94

35:                                               ; preds = %30
  %36 = load ptr, ptr %9, align 8
  %37 = icmp eq ptr %36, null
  br i1 %37, label %38, label %57

38:                                               ; preds = %35
  %39 = call ptr @palloc_extended(i64 noundef 16928, i32 noundef 2)
  store ptr %39, ptr %9, align 8
  %40 = load ptr, ptr %9, align 8
  %41 = icmp eq ptr %40, null
  br i1 %41, label %42, label %56

42:                                               ; preds = %38
  %43 = load ptr, ptr %6, align 8
  %44 = getelementptr inbounds nuw %struct.vars, ptr %43, i32 0, i32 9
  %45 = load i32, ptr %44, align 8
  %46 = icmp ne i32 %45, 0
  br i1 %46, label %47, label %51

47:                                               ; preds = %42
  %48 = load ptr, ptr %6, align 8
  %49 = getelementptr inbounds nuw %struct.vars, ptr %48, i32 0, i32 9
  %50 = load i32, ptr %49, align 8
  br label %52

51:                                               ; preds = %42
  br label %52

52:                                               ; preds = %51, %47
  %53 = phi i32 [ %50, %47 ], [ 12, %51 ]
  %54 = load ptr, ptr %6, align 8
  %55 = getelementptr inbounds nuw %struct.vars, ptr %54, i32 0, i32 9
  store i32 %53, ptr %55, align 8
  store ptr null, ptr %5, align 8
  store i32 1, ptr %14, align 4
  br label %247

56:                                               ; preds = %38
  store i8 1, ptr %13, align 1
  br label %57

57:                                               ; preds = %56, %35
  %58 = load ptr, ptr %9, align 8
  %59 = getelementptr inbounds nuw %struct.smalldfa, ptr %58, i32 0, i32 0
  store ptr %59, ptr %10, align 8
  %60 = load ptr, ptr %9, align 8
  %61 = getelementptr inbounds nuw %struct.smalldfa, ptr %60, i32 0, i32 1
  %62 = getelementptr inbounds [40 x %struct.sset], ptr %61, i64 0, i64 0
  %63 = load ptr, ptr %10, align 8
  %64 = getelementptr inbounds nuw %struct.dfa, ptr %63, i32 0, i32 5
  store ptr %62, ptr %64, align 8
  %65 = load ptr, ptr %9, align 8
  %66 = getelementptr inbounds nuw %struct.smalldfa, ptr %65, i32 0, i32 2
  %67 = getelementptr inbounds [41 x i32], ptr %66, i64 0, i64 0
  %68 = load ptr, ptr %10, align 8
  %69 = getelementptr inbounds nuw %struct.dfa, ptr %68, i32 0, i32 6
  store ptr %67, ptr %69, align 8
  %70 = load ptr, ptr %10, align 8
  %71 = getelementptr inbounds nuw %struct.dfa, ptr %70, i32 0, i32 6
  %72 = load ptr, ptr %71, align 8
  %73 = load i64, ptr %11, align 8
  %74 = getelementptr inbounds nuw i32, ptr %72, i64 %73
  %75 = load ptr, ptr %10, align 8
  %76 = getelementptr inbounds nuw %struct.dfa, ptr %75, i32 0, i32 7
  store ptr %74, ptr %76, align 8
  %77 = load ptr, ptr %9, align 8
  %78 = getelementptr inbounds nuw %struct.smalldfa, ptr %77, i32 0, i32 3
  %79 = getelementptr inbounds [600 x ptr], ptr %78, i64 0, i64 0
  %80 = load ptr, ptr %10, align 8
  %81 = getelementptr inbounds nuw %struct.dfa, ptr %80, i32 0, i32 8
  store ptr %79, ptr %81, align 8
  %82 = load ptr, ptr %9, align 8
  %83 = getelementptr inbounds nuw %struct.smalldfa, ptr %82, i32 0, i32 4
  %84 = getelementptr inbounds [600 x %struct.arcp], ptr %83, i64 0, i64 0
  %85 = load ptr, ptr %10, align 8
  %86 = getelementptr inbounds nuw %struct.dfa, ptr %85, i32 0, i32 9
  store ptr %84, ptr %86, align 8
  %87 = load i8, ptr %13, align 1, !range !12, !noundef !13
  %88 = trunc i8 %87 to i1
  %89 = load ptr, ptr %10, align 8
  %90 = getelementptr inbounds nuw %struct.dfa, ptr %89, i32 0, i32 18
  %91 = zext i1 %88 to i8
  store i8 %91, ptr %90, align 8
  %92 = load ptr, ptr %10, align 8
  %93 = getelementptr inbounds nuw %struct.dfa, ptr %92, i32 0, i32 19
  store i8 0, ptr %93, align 1
  br label %196

94:                                               ; preds = %30, %4
  %95 = call ptr @palloc_extended(i64 noundef 120, i32 noundef 2)
  store ptr %95, ptr %10, align 8
  %96 = load ptr, ptr %10, align 8
  %97 = icmp eq ptr %96, null
  br i1 %97, label %98, label %112

98:                                               ; preds = %94
  %99 = load ptr, ptr %6, align 8
  %100 = getelementptr inbounds nuw %struct.vars, ptr %99, i32 0, i32 9
  %101 = load i32, ptr %100, align 8
  %102 = icmp ne i32 %101, 0
  br i1 %102, label %103, label %107

103:                                              ; preds = %98
  %104 = load ptr, ptr %6, align 8
  %105 = getelementptr inbounds nuw %struct.vars, ptr %104, i32 0, i32 9
  %106 = load i32, ptr %105, align 8
  br label %108

107:                                              ; preds = %98
  br label %108

108:                                              ; preds = %107, %103
  %109 = phi i32 [ %106, %103 ], [ 12, %107 ]
  %110 = load ptr, ptr %6, align 8
  %111 = getelementptr inbounds nuw %struct.vars, ptr %110, i32 0, i32 9
  store i32 %109, ptr %111, align 8
  store ptr null, ptr %5, align 8
  store i32 1, ptr %14, align 4
  br label %247

112:                                              ; preds = %94
  %113 = load i64, ptr %11, align 8
  %114 = mul i64 %113, 56
  %115 = call ptr @palloc_extended(i64 noundef %114, i32 noundef 2)
  %116 = load ptr, ptr %10, align 8
  %117 = getelementptr inbounds nuw %struct.dfa, ptr %116, i32 0, i32 5
  store ptr %115, ptr %117, align 8
  %118 = load i64, ptr %11, align 8
  %119 = add i64 %118, 1
  %120 = load i32, ptr %12, align 4
  %121 = sext i32 %120 to i64
  %122 = mul i64 %119, %121
  %123 = mul i64 %122, 4
  %124 = call ptr @palloc_extended(i64 noundef %123, i32 noundef 2)
  %125 = load ptr, ptr %10, align 8
  %126 = getelementptr inbounds nuw %struct.dfa, ptr %125, i32 0, i32 6
  store ptr %124, ptr %126, align 8
  %127 = load ptr, ptr %10, align 8
  %128 = getelementptr inbounds nuw %struct.dfa, ptr %127, i32 0, i32 6
  %129 = load ptr, ptr %128, align 8
  %130 = load i64, ptr %11, align 8
  %131 = load i32, ptr %12, align 4
  %132 = sext i32 %131 to i64
  %133 = mul i64 %130, %132
  %134 = getelementptr inbounds nuw i32, ptr %129, i64 %133
  %135 = load ptr, ptr %10, align 8
  %136 = getelementptr inbounds nuw %struct.dfa, ptr %135, i32 0, i32 7
  store ptr %134, ptr %136, align 8
  %137 = load i64, ptr %11, align 8
  %138 = load ptr, ptr %7, align 8
  %139 = getelementptr inbounds nuw %struct.cnfa, ptr %138, i32 0, i32 1
  %140 = load i32, ptr %139, align 4
  %141 = sext i32 %140 to i64
  %142 = mul i64 %137, %141
  %143 = mul i64 %142, 8
  %144 = call ptr @palloc_extended(i64 noundef %143, i32 noundef 2)
  %145 = load ptr, ptr %10, align 8
  %146 = getelementptr inbounds nuw %struct.dfa, ptr %145, i32 0, i32 8
  store ptr %144, ptr %146, align 8
  %147 = load i64, ptr %11, align 8
  %148 = load ptr, ptr %7, align 8
  %149 = getelementptr inbounds nuw %struct.cnfa, ptr %148, i32 0, i32 1
  %150 = load i32, ptr %149, align 4
  %151 = sext i32 %150 to i64
  %152 = mul i64 %147, %151
  %153 = mul i64 %152, 16
  %154 = call ptr @palloc_extended(i64 noundef %153, i32 noundef 2)
  %155 = load ptr, ptr %10, align 8
  %156 = getelementptr inbounds nuw %struct.dfa, ptr %155, i32 0, i32 9
  store ptr %154, ptr %156, align 8
  %157 = load ptr, ptr %10, align 8
  %158 = getelementptr inbounds nuw %struct.dfa, ptr %157, i32 0, i32 18
  store i8 1, ptr %158, align 8
  %159 = load ptr, ptr %10, align 8
  %160 = getelementptr inbounds nuw %struct.dfa, ptr %159, i32 0, i32 19
  store i8 1, ptr %160, align 1
  %161 = load ptr, ptr %10, align 8
  %162 = getelementptr inbounds nuw %struct.dfa, ptr %161, i32 0, i32 5
  %163 = load ptr, ptr %162, align 8
  %164 = icmp eq ptr %163, null
  br i1 %164, label %180, label %165

165:                                              ; preds = %112
  %166 = load ptr, ptr %10, align 8
  %167 = getelementptr inbounds nuw %struct.dfa, ptr %166, i32 0, i32 6
  %168 = load ptr, ptr %167, align 8
  %169 = icmp eq ptr %168, null
  br i1 %169, label %180, label %170

170:                                              ; preds = %165
  %171 = load ptr, ptr %10, align 8
  %172 = getelementptr inbounds nuw %struct.dfa, ptr %171, i32 0, i32 8
  %173 = load ptr, ptr %172, align 8
  %174 = icmp eq ptr %173, null
  br i1 %174, label %180, label %175

175:                                              ; preds = %170
  %176 = load ptr, ptr %10, align 8
  %177 = getelementptr inbounds nuw %struct.dfa, ptr %176, i32 0, i32 9
  %178 = load ptr, ptr %177, align 8
  %179 = icmp eq ptr %178, null
  br i1 %179, label %180, label %195

180:                                              ; preds = %175, %170, %165, %112
  %181 = load ptr, ptr %10, align 8
  call void @freedfa(ptr noundef %181)
  %182 = load ptr, ptr %6, align 8
  %183 = getelementptr inbounds nuw %struct.vars, ptr %182, i32 0, i32 9
  %184 = load i32, ptr %183, align 8
  %185 = icmp ne i32 %184, 0
  br i1 %185, label %186, label %190

186:                                              ; preds = %180
  %187 = load ptr, ptr %6, align 8
  %188 = getelementptr inbounds nuw %struct.vars, ptr %187, i32 0, i32 9
  %189 = load i32, ptr %188, align 8
  br label %191

190:                                              ; preds = %180
  br label %191

191:                                              ; preds = %190, %186
  %192 = phi i32 [ %189, %186 ], [ 12, %190 ]
  %193 = load ptr, ptr %6, align 8
  %194 = getelementptr inbounds nuw %struct.vars, ptr %193, i32 0, i32 9
  store i32 %192, ptr %194, align 8
  store ptr null, ptr %5, align 8
  store i32 1, ptr %14, align 4
  br label %247

195:                                              ; preds = %175
  br label %196

196:                                              ; preds = %195, %57
  %197 = load ptr, ptr %6, align 8
  %198 = getelementptr inbounds nuw %struct.vars, ptr %197, i32 0, i32 2
  %199 = load i32, ptr %198, align 8
  %200 = and i32 %199, 32
  %201 = icmp ne i32 %200, 0
  br i1 %201, label %202, label %203

202:                                              ; preds = %196
  br label %205

203:                                              ; preds = %196
  %204 = load i64, ptr %11, align 8
  br label %205

205:                                              ; preds = %203, %202
  %206 = phi i64 [ 7, %202 ], [ %204, %203 ]
  %207 = trunc i64 %206 to i32
  %208 = load ptr, ptr %10, align 8
  %209 = getelementptr inbounds nuw %struct.dfa, ptr %208, i32 0, i32 0
  store i32 %207, ptr %209, align 8
  %210 = load ptr, ptr %10, align 8
  %211 = getelementptr inbounds nuw %struct.dfa, ptr %210, i32 0, i32 1
  store i32 0, ptr %211, align 4
  %212 = load ptr, ptr %7, align 8
  %213 = getelementptr inbounds nuw %struct.cnfa, ptr %212, i32 0, i32 0
  %214 = load i32, ptr %213, align 8
  %215 = load ptr, ptr %10, align 8
  %216 = getelementptr inbounds nuw %struct.dfa, ptr %215, i32 0, i32 2
  store i32 %214, ptr %216, align 8
  %217 = load ptr, ptr %7, align 8
  %218 = getelementptr inbounds nuw %struct.cnfa, ptr %217, i32 0, i32 1
  %219 = load i32, ptr %218, align 4
  %220 = load ptr, ptr %10, align 8
  %221 = getelementptr inbounds nuw %struct.dfa, ptr %220, i32 0, i32 3
  store i32 %219, ptr %221, align 4
  %222 = load i32, ptr %12, align 4
  %223 = load ptr, ptr %10, align 8
  %224 = getelementptr inbounds nuw %struct.dfa, ptr %223, i32 0, i32 4
  store i32 %222, ptr %224, align 8
  %225 = load ptr, ptr %7, align 8
  %226 = load ptr, ptr %10, align 8
  %227 = getelementptr inbounds nuw %struct.dfa, ptr %226, i32 0, i32 10
  store ptr %225, ptr %227, align 8
  %228 = load ptr, ptr %8, align 8
  %229 = load ptr, ptr %10, align 8
  %230 = getelementptr inbounds nuw %struct.dfa, ptr %229, i32 0, i32 11
  store ptr %228, ptr %230, align 8
  %231 = load ptr, ptr %10, align 8
  %232 = getelementptr inbounds nuw %struct.dfa, ptr %231, i32 0, i32 12
  store ptr null, ptr %232, align 8
  %233 = load ptr, ptr %10, align 8
  %234 = getelementptr inbounds nuw %struct.dfa, ptr %233, i32 0, i32 13
  store ptr null, ptr %234, align 8
  %235 = load ptr, ptr %10, align 8
  %236 = getelementptr inbounds nuw %struct.dfa, ptr %235, i32 0, i32 5
  %237 = load ptr, ptr %236, align 8
  %238 = load ptr, ptr %10, align 8
  %239 = getelementptr inbounds nuw %struct.dfa, ptr %238, i32 0, i32 14
  store ptr %237, ptr %239, align 8
  %240 = load ptr, ptr %10, align 8
  %241 = getelementptr inbounds nuw %struct.dfa, ptr %240, i32 0, i32 15
  store i32 -1, ptr %241, align 8
  %242 = load ptr, ptr %10, align 8
  %243 = getelementptr inbounds nuw %struct.dfa, ptr %242, i32 0, i32 17
  store i16 0, ptr %243, align 2
  %244 = load ptr, ptr %10, align 8
  %245 = getelementptr inbounds nuw %struct.dfa, ptr %244, i32 0, i32 16
  store i16 0, ptr %245, align 4
  %246 = load ptr, ptr %10, align 8
  store ptr %246, ptr %5, align 8
  store i32 1, ptr %14, align 4
  br label %247

247:                                              ; preds = %205, %191, %108, %52
  call void @llvm.lifetime.end.p0(i64 1, ptr %13) #7
  call void @llvm.lifetime.end.p0(i64 4, ptr %12) #7
  call void @llvm.lifetime.end.p0(i64 8, ptr %11) #7
  call void @llvm.lifetime.end.p0(i64 8, ptr %10) #7
  %248 = load ptr, ptr %5, align 8
  ret ptr %248
}