; Function Attrs: nounwind uwtable
define internal fastcc noundef ptr @newdfa(ptr noundef nonnull captures(none) %0, ptr noundef %1, ptr noundef %2, ptr noundef %3) unnamed_addr #0 {
  %5 = load i32, ptr %1, align 8
  %6 = shl i32 %5, 1
  %7 = sext i32 %6 to i64
  %8 = sext i32 %5 to i64
  %9 = add nsw i64 %8, 31
  %10 = lshr i64 %9, 5
  %11 = trunc i64 %10 to i32
  %12 = icmp ult i32 %6, 21
  br i1 %12, label %13, label %39

13:                                               ; preds = %4
  %14 = getelementptr inbounds nuw i8, ptr %1, i64 4
  %15 = load i32, ptr %14, align 4
  %16 = icmp slt i32 %15, 16
  br i1 %16, label %17, label %39

17:                                               ; preds = %13
  %18 = icmp eq ptr %3, null
  br i1 %18, label %19, label %25

19:                                               ; preds = %17
  %20 = tail call ptr @palloc_extended(i64 noundef 16928, i32 noundef 2) #10
  %21 = icmp eq ptr %20, null
  br i1 %21, label %22, label %25

22:                                               ; preds = %19
  %23 = getelementptr inbounds nuw i8, ptr %0, i64 72
  %24 = load i32, ptr %23, align 8
  %.not87 = icmp eq i32 %24, 0
  %spec.select = select i1 %.not87, i32 12, i32 %24
  store i32 %spec.select, ptr %23, align 8
  br label %118

25:                                               ; preds = %19, %17
  %.076 = phi ptr [ %3, %17 ], [ %20, %19 ]
  %26 = getelementptr inbounds nuw i8, ptr %.076, i64 120
  %27 = getelementptr inbounds nuw i8, ptr %.076, i64 24
  store ptr %26, ptr %27, align 8
  %28 = getelementptr inbounds nuw i8, ptr %.076, i64 2360
  %29 = getelementptr inbounds nuw i8, ptr %.076, i64 32
  store ptr %28, ptr %29, align 8
  %30 = getelementptr inbounds nuw i32, ptr %28, i64 %7
  %31 = getelementptr inbounds nuw i8, ptr %.076, i64 40
  store ptr %30, ptr %31, align 8
  %32 = getelementptr inbounds nuw i8, ptr %.076, i64 2528
  %33 = getelementptr inbounds nuw i8, ptr %.076, i64 48
  store ptr %32, ptr %33, align 8
  %34 = getelementptr inbounds nuw i8, ptr %.076, i64 7328
  %35 = getelementptr inbounds nuw i8, ptr %.076, i64 56
  store ptr %34, ptr %35, align 8
  %36 = getelementptr inbounds nuw i8, ptr %.076, i64 112
  %37 = zext i1 %18 to i8
  store i8 %37, ptr %36, align 8
  %38 = getelementptr inbounds nuw i8, ptr %.076, i64 113
  store i8 0, ptr %38, align 1
  br label %98

39:                                               ; preds = %13, %4
  %40 = tail call ptr @palloc_extended(i64 noundef 120, i32 noundef 2) #10
  %41 = icmp eq ptr %40, null
  br i1 %41, label %42, label %45

42:                                               ; preds = %39
  %43 = getelementptr inbounds nuw i8, ptr %0, i64 72
  %44 = load i32, ptr %43, align 8
  %.not85 = icmp eq i32 %44, 0
  %spec.select88 = select i1 %.not85, i32 12, i32 %44
  store i32 %spec.select88, ptr %43, align 8
  br label %118

45:                                               ; preds = %39
  %46 = mul nsw i64 %7, 56
  %47 = tail call ptr @palloc_extended(i64 noundef %46, i32 noundef 2) #10
  %48 = getelementptr inbounds nuw i8, ptr %40, i64 24
  store ptr %47, ptr %48, align 8
  %sext = shl i64 %10, 32
  %49 = ashr exact i64 %sext, 32
  %50 = shl nsw i64 %7, 2
  %51 = or disjoint i64 %50, 4
  %52 = mul i64 %51, %49
  %53 = tail call ptr @palloc_extended(i64 noundef %52, i32 noundef 2) #10
  %54 = getelementptr inbounds nuw i8, ptr %40, i64 32
  store ptr %53, ptr %54, align 8
  %55 = mul nsw i64 %49, %7
  %56 = getelementptr inbounds nuw i32, ptr %53, i64 %55
  %57 = getelementptr inbounds nuw i8, ptr %40, i64 40
  store ptr %56, ptr %57, align 8
  %58 = getelementptr inbounds nuw i8, ptr %1, i64 4
  %59 = load i32, ptr %58, align 4
  %60 = sext i32 %59 to i64
  %61 = shl nsw i64 %7, 3
  %62 = mul i64 %61, %60
  %63 = tail call ptr @palloc_extended(i64 noundef %62, i32 noundef 2) #10
  %64 = getelementptr inbounds nuw i8, ptr %40, i64 48
  store ptr %63, ptr %64, align 8
  %65 = load i32, ptr %58, align 4
  %66 = sext i32 %65 to i64
  %67 = shl nsw i64 %7, 4
  %68 = mul i64 %67, %66
  %69 = tail call ptr @palloc_extended(i64 noundef %68, i32 noundef 2) #10
  %70 = getelementptr inbounds nuw i8, ptr %40, i64 56
  store ptr %69, ptr %70, align 8
  %71 = getelementptr inbounds nuw i8, ptr %40, i64 112
  store i8 1, ptr %71, align 8
  %72 = getelementptr inbounds nuw i8, ptr %40, i64 113
  store i8 1, ptr %72, align 1
  %73 = load ptr, ptr %48, align 8
  %74 = icmp eq ptr %73, null
  br i1 %74, label %83, label %75

75:                                               ; preds = %45
  %76 = load ptr, ptr %54, align 8
  %77 = icmp eq ptr %76, null
  br i1 %77, label %82, label %78

78:                                               ; preds = %75
  %79 = load ptr, ptr %64, align 8
  %80 = icmp eq ptr %79, null
  %81 = icmp eq ptr %69, null
  %or.cond = select i1 %80, i1 true, i1 %81
  br i1 %or.cond, label %82, label %98

82:                                               ; preds = %75, %78
  tail call void @pfree(ptr noundef nonnull %73) #10
  br label %83

83:                                               ; preds = %45, %82
  %84 = load ptr, ptr %54, align 8
  %.not14.i = icmp eq ptr %84, null
  br i1 %.not14.i, label %86, label %85

85:                                               ; preds = %83
  tail call void @pfree(ptr noundef nonnull %84) #10
  br label %86

86:                                               ; preds = %85, %83
  %87 = load ptr, ptr %64, align 8
  %.not15.i = icmp eq ptr %87, null
  br i1 %.not15.i, label %89, label %88

88:                                               ; preds = %86
  tail call void @pfree(ptr noundef nonnull %87) #10
  br label %89

89:                                               ; preds = %88, %86
  %90 = load ptr, ptr %70, align 8
  %.not16.i = icmp eq ptr %90, null
  br i1 %.not16.i, label %92, label %91

91:                                               ; preds = %89
  tail call void @pfree(ptr noundef nonnull %90) #10
  br label %92

92:                                               ; preds = %91, %89
  %93 = load i8, ptr %71, align 8, !range !8, !noundef !9
  %94 = trunc nuw i8 %93 to i1
  br i1 %94, label %95, label %freedfa.exit

95:                                               ; preds = %92
  tail call void @pfree(ptr noundef nonnull %40) #10
  br label %freedfa.exit

freedfa.exit:                                     ; preds = %92, %95
  %96 = getelementptr inbounds nuw i8, ptr %0, i64 72
  %97 = load i32, ptr %96, align 8
  %.not = icmp eq i32 %97, 0
  %spec.select89 = select i1 %.not, i32 12, i32 %97
  store i32 %spec.select89, ptr %96, align 8
  br label %118

98:                                               ; preds = %78, %25
  %99 = phi ptr [ %26, %25 ], [ %73, %78 ]
  %.077 = phi ptr [ %.076, %25 ], [ %40, %78 ]
  %100 = getelementptr inbounds nuw i8, ptr %0, i64 16
  %101 = load i32, ptr %100, align 8
  %102 = and i32 %101, 32
  %.not86 = icmp eq i32 %102, 0
  %103 = select i1 %.not86, i32 %6, i32 7
  store i32 %103, ptr %.077, align 8
  %104 = getelementptr inbounds nuw i8, ptr %.077, i64 4
  store i32 0, ptr %104, align 4
  %105 = load i32, ptr %1, align 8
  %106 = getelementptr inbounds nuw i8, ptr %.077, i64 8
  store i32 %105, ptr %106, align 8
  %107 = getelementptr inbounds nuw i8, ptr %1, i64 4
  %108 = load i32, ptr %107, align 4
  %109 = getelementptr inbounds nuw i8, ptr %.077, i64 12
  store i32 %108, ptr %109, align 4
  %110 = getelementptr inbounds nuw i8, ptr %.077, i64 16
  store i32 %11, ptr %110, align 8
  %111 = getelementptr inbounds nuw i8, ptr %.077, i64 64
  store ptr %1, ptr %111, align 8
  %112 = getelementptr inbounds nuw i8, ptr %.077, i64 72
  store ptr %2, ptr %112, align 8
  %113 = getelementptr inbounds nuw i8, ptr %.077, i64 80
  %114 = getelementptr inbounds nuw i8, ptr %.077, i64 96
  tail call void @llvm.memset.p0.i64(ptr noundef nonnull align 8 dereferenceable(16) %113, i8 0, i64 16, i1 false)
  store ptr %99, ptr %114, align 8
  %115 = getelementptr inbounds nuw i8, ptr %.077, i64 104
  store i32 -1, ptr %115, align 8
  %116 = getelementptr inbounds nuw i8, ptr %.077, i64 110
  store i16 0, ptr %116, align 2
  %117 = getelementptr inbounds nuw i8, ptr %.077, i64 108
  store i16 0, ptr %117, align 4
  br label %118

118:                                              ; preds = %98, %freedfa.exit, %42, %22
  %.075 = phi ptr [ null, %22 ], [ %.077, %98 ], [ null, %42 ], [ null, %freedfa.exit ]
  ret ptr %.075
}